; Function Attrs: nounwind uwtable
define i32 @wolfSSL_GetOutputSize(ptr noundef %0, i32 noundef %1) local_unnamed_addr #0 {
  %3 = icmp slt i32 %1, 0
  %4 = icmp eq ptr %0, null
  %or.cond = or i1 %4, %3
  br i1 %or.cond, label %wolfSSL_GetMaxOutputSize.exit.thread, label %5

5:                                                ; preds = %2
  %6 = getelementptr inbounds nuw i8, ptr %0, i64 1045
  %7 = load i8, ptr %6, align 1, !tbaa !147
  %.not.i = icmp eq i8 %7, 16
  br i1 %.not.i, label %wolfSSL_GetMaxOutputSize.exit, label %wolfSSL_GetMaxOutputSize.exit.thread

wolfSSL_GetMaxOutputSize.exit:                    ; preds = %5
  %8 = tail call i32 @wolfSSL_GetMaxFragSize(ptr noundef nonnull %0, i32 noundef 16384) #22
  %9 = icmp slt i32 %8, 0
  br i1 %9, label %wolfSSL_GetMaxOutputSize.exit.thread, label %10

10:                                               ; preds = %wolfSSL_GetMaxOutputSize.exit
  %11 = icmp samesign ugt i32 %1, %8
  br i1 %11, label %wolfSSL_GetMaxOutputSize.exit.thread, label %12

12:                                               ; preds = %10
  %13 = tail call i32 @BuildMessage(ptr noundef nonnull %0, ptr noundef null, i32 noundef 0, ptr noundef null, i32 noundef %1, i32 noundef 23, i32 noundef 0, i32 noundef 1, i32 noundef 0, i32 noundef 0) #22
  br label %wolfSSL_GetMaxOutputSize.exit.thread

wolfSSL_GetMaxOutputSize.exit.thread:             ; preds = %5, %10, %wolfSSL_GetMaxOutputSize.exit, %2, %12
  %.0 = phi i32 [ %13, %12 ], [ -173, %2 ], [ %8, %wolfSSL_GetMaxOutputSize.exit ], [ -412, %10 ], [ -173, %5 ]
  ret i32 %.0
}